
Discarded input sections

 .group         0x00000000        0xc ../build/obj/startup.o
 .group         0x00000000        0xc ../build/obj/startup.o
 .group         0x00000000        0xc ../build/obj/startup.o
 .group         0x00000000        0xc ../build/obj/startup.o
 .group         0x00000000        0xc ../build/obj/startup.o
 .group         0x00000000        0xc ../build/obj/startup.o
 .group         0x00000000        0xc ../build/obj/startup.o
 .group         0x00000000        0xc ../build/obj/startup.o
 .group         0x00000000        0xc ../build/obj/startup.o
 .group         0x00000000        0xc ../build/obj/main.o
 .group         0x00000000        0xc ../build/obj/main.o
 .group         0x00000000        0xc ../build/obj/main.o
 .group         0x00000000        0xc ../build/obj/main.o
 .group         0x00000000        0xc ../build/obj/main.o
 .group         0x00000000        0xc ../build/obj/main.o
 .group         0x00000000        0xc ../build/obj/main.o
 .group         0x00000000        0xc ../build/obj/main.o
 .group         0x00000000        0xc ../build/obj/main.o
 .debug_macro   0x00000000      0xa5a ../build/obj/main.o
 .debug_macro   0x00000000       0x19 ../build/obj/main.o
 .debug_macro   0x00000000       0x22 ../build/obj/main.o
 .debug_macro   0x00000000       0x8e ../build/obj/main.o
 .debug_macro   0x00000000       0x51 ../build/obj/main.o
 .debug_macro   0x00000000      0x103 ../build/obj/main.o
 .debug_macro   0x00000000       0x6a ../build/obj/main.o
 .debug_macro   0x00000000      0x1df ../build/obj/main.o
 .debug_macro   0x00000000     0xdf8d ../build/obj/main.o
 .group         0x00000000        0xc ../build/obj/port.o
 .group         0x00000000        0xc ../build/obj/port.o
 .group         0x00000000        0xc ../build/obj/port.o
 .group         0x00000000        0xc ../build/obj/port.o
 .group         0x00000000        0xc ../build/obj/port.o
 .group         0x00000000        0xc ../build/obj/port.o
 .group         0x00000000        0xc ../build/obj/port.o
 .group         0x00000000        0xc ../build/obj/port.o
 .group         0x00000000        0xc ../build/obj/port.o
 .debug_macro   0x00000000      0xa5a ../build/obj/port.o
 .debug_macro   0x00000000       0x19 ../build/obj/port.o
 .debug_macro   0x00000000       0x22 ../build/obj/port.o
 .debug_macro   0x00000000       0x8e ../build/obj/port.o
 .debug_macro   0x00000000       0x51 ../build/obj/port.o
 .debug_macro   0x00000000      0x103 ../build/obj/port.o
 .debug_macro   0x00000000       0x6a ../build/obj/port.o
 .debug_macro   0x00000000      0x1df ../build/obj/port.o
 .debug_macro   0x00000000     0xdf8d ../build/obj/port.o
 .group         0x00000000        0xc ../build/obj/flash.o
 .group         0x00000000        0xc ../build/obj/flash.o
 .group         0x00000000        0xc ../build/obj/flash.o
 .group         0x00000000        0xc ../build/obj/flash.o
 .group         0x00000000        0xc ../build/obj/flash.o
 .group         0x00000000        0xc ../build/obj/flash.o
 .group         0x00000000        0xc ../build/obj/flash.o
 .group         0x00000000        0xc ../build/obj/flash.o
 .group         0x00000000        0xc ../build/obj/flash.o
 .debug_macro   0x00000000      0xa5a ../build/obj/flash.o
 .debug_macro   0x00000000       0x19 ../build/obj/flash.o
 .debug_macro   0x00000000       0x22 ../build/obj/flash.o
 .debug_macro   0x00000000       0x8e ../build/obj/flash.o
 .debug_macro   0x00000000       0x51 ../build/obj/flash.o
 .debug_macro   0x00000000      0x103 ../build/obj/flash.o
 .debug_macro   0x00000000       0x6a ../build/obj/flash.o
 .debug_macro   0x00000000      0x1df ../build/obj/flash.o
 .debug_macro   0x00000000     0xdf8d ../build/obj/flash.o
 .group         0x00000000        0xc ../build/obj/gpio.o
 .group         0x00000000        0xc ../build/obj/gpio.o
 .group         0x00000000        0xc ../build/obj/gpio.o
 .group         0x00000000        0xc ../build/obj/gpio.o
 .group         0x00000000        0xc ../build/obj/gpio.o
 .group         0x00000000        0xc ../build/obj/gpio.o
 .group         0x00000000        0xc ../build/obj/gpio.o
 .group         0x00000000        0xc ../build/obj/gpio.o
 .group         0x00000000        0xc ../build/obj/gpio.o
 .debug_macro   0x00000000      0xa5a ../build/obj/gpio.o
 .debug_macro   0x00000000       0x19 ../build/obj/gpio.o
 .debug_macro   0x00000000       0x22 ../build/obj/gpio.o
 .debug_macro   0x00000000       0x8e ../build/obj/gpio.o
 .debug_macro   0x00000000       0x51 ../build/obj/gpio.o
 .debug_macro   0x00000000      0x103 ../build/obj/gpio.o
 .debug_macro   0x00000000       0x6a ../build/obj/gpio.o
 .debug_macro   0x00000000      0x1df ../build/obj/gpio.o
 .debug_macro   0x00000000     0xdf8d ../build/obj/gpio.o
 .group         0x00000000        0xc ../build/obj/wdog.o
 .group         0x00000000        0xc ../build/obj/wdog.o
 .group         0x00000000        0xc ../build/obj/wdog.o
 .group         0x00000000        0xc ../build/obj/wdog.o
 .group         0x00000000        0xc ../build/obj/wdog.o
 .group         0x00000000        0xc ../build/obj/wdog.o
 .group         0x00000000        0xc ../build/obj/wdog.o
 .group         0x00000000        0xc ../build/obj/wdog.o
 .group         0x00000000        0xc ../build/obj/wdog.o
 .debug_macro   0x00000000      0xa5a ../build/obj/wdog.o
 .debug_macro   0x00000000       0x19 ../build/obj/wdog.o
 .debug_macro   0x00000000       0x22 ../build/obj/wdog.o
 .debug_macro   0x00000000       0x8e ../build/obj/wdog.o
 .debug_macro   0x00000000       0x51 ../build/obj/wdog.o
 .debug_macro   0x00000000      0x103 ../build/obj/wdog.o
 .debug_macro   0x00000000       0x6a ../build/obj/wdog.o
 .debug_macro   0x00000000      0x1df ../build/obj/wdog.o
 .debug_macro   0x00000000     0xdf8d ../build/obj/wdog.o
 .group         0x00000000        0xc ../build/obj/interrupt.o
 .group         0x00000000        0xc ../build/obj/interrupt.o
 .group         0x00000000        0xc ../build/obj/interrupt.o
 .group         0x00000000        0xc ../build/obj/interrupt.o
 .group         0x00000000        0xc ../build/obj/interrupt.o
 .group         0x00000000        0xc ../build/obj/interrupt.o
 .group         0x00000000        0xc ../build/obj/interrupt.o
 .group         0x00000000        0xc ../build/obj/interrupt.o
 .group         0x00000000        0xc ../build/obj/interrupt.o
 .debug_macro   0x00000000      0xa5a ../build/obj/interrupt.o
 .debug_macro   0x00000000       0x19 ../build/obj/interrupt.o
 .debug_macro   0x00000000       0x22 ../build/obj/interrupt.o
 .debug_macro   0x00000000       0x8e ../build/obj/interrupt.o
 .debug_macro   0x00000000       0x51 ../build/obj/interrupt.o
 .debug_macro   0x00000000      0x103 ../build/obj/interrupt.o
 .debug_macro   0x00000000       0x6a ../build/obj/interrupt.o
 .debug_macro   0x00000000      0x1df ../build/obj/interrupt.o
 .debug_macro   0x00000000     0xdf8d ../build/obj/interrupt.o
 .group         0x00000000        0xc ../build/obj/clock.o
 .group         0x00000000        0xc ../build/obj/clock.o
 .group         0x00000000        0xc ../build/obj/clock.o
 .group         0x00000000        0xc ../build/obj/clock.o
 .group         0x00000000        0xc ../build/obj/clock.o
 .group         0x00000000        0xc ../build/obj/clock.o
 .group         0x00000000        0xc ../build/obj/clock.o
 .group         0x00000000        0xc ../build/obj/clock.o
 .group         0x00000000        0xc ../build/obj/clock.o
 .debug_macro   0x00000000      0xa5a ../build/obj/clock.o
 .debug_macro   0x00000000       0x19 ../build/obj/clock.o
 .debug_macro   0x00000000       0x22 ../build/obj/clock.o
 .debug_macro   0x00000000       0x8e ../build/obj/clock.o
 .debug_macro   0x00000000       0x51 ../build/obj/clock.o
 .debug_macro   0x00000000      0x103 ../build/obj/clock.o
 .debug_macro   0x00000000       0x6a ../build/obj/clock.o
 .debug_macro   0x00000000      0x1df ../build/obj/clock.o
 .debug_macro   0x00000000     0xdf8d ../build/obj/clock.o

Memory Configuration

Name             Origin             Length             Attributes
VECTAB           0x00008400         0x00000400         xr
FLASH            0x00008800         0x000777ff         xr
SRAM1            0x1fff8000         0x00008000         xrw
SRAM2            0x20000000         0x00007000         xrw
*default*        0x00000000         0xffffffff

Linker script and memory map

LOAD ../build/obj/startup.o
LOAD ../build/obj/main.o
LOAD ../build/obj/port.o
LOAD ../build/obj/flash.o
LOAD ../build/obj/gpio.o
LOAD ../build/obj/wdog.o
LOAD ../build/obj/interrupt.o
LOAD ../build/obj/clock.o

.intvec         0x00008400      0x400
                0x00008400                _intvec_start_ = .
 *(.intvec)
 .intvec        0x00008400      0x400 ../build/obj/interrupt.o
                0x00008400                vectorTable
                0x00008800                . = ALIGN (0x4)
                0x00008800                _intvec_end_ = .

.text           0x00008800      0x424
                0x00008800                _stext = .
 *(.text)
 .text          0x00008800       0x2c ../build/obj/startup.o
                0x00008800                Reset_Handler
                0x00008814                initData
                0x00008820                initbss
 .text          0x0000882c       0x80 ../build/obj/main.o
                0x0000882c                delay
                0x00008858                main
 .text          0x000088ac       0x22 ../build/obj/port.o
                0x000088ac                PortPCR
 *fill*         0x000088ce        0x2 
 .text          0x000088d0      0x1e0 ../build/obj/flash.o
                0x000088d0                CommandSequence
                0x0000890c                Read1sBlock
                0x00008928                Read1sSection
                0x00008944                ProgramCheck
                0x00008960                ProgramPhrase
                0x0000897c                EraseFlashBlock
                0x00008998                EraseFlashSector
                0x000089b4                ProgramSection
                0x000089d0                Read1sAllBlocks
                0x000089ec                ReadOnce
                0x00008a08                ProgramOnce
                0x00008a24                EraseAllBlocks
                0x00008a40                VerifyBackdoorAccessKey
                0x00008a5c                EraseAllBlocksUnsecure
                0x00008a78                ProgramPartition
                0x00008a94                SetFlexRAM
 .text          0x00008ab0       0xc0 ../build/obj/gpio.o
                0x00008ab0                ToggleGPIO
                0x00008ad8                SetGPIO
                0x00008b00                ClearGPIO
                0x00008b28                DataDirectionGPIO
                0x00008b50                DataOutGPIO
 .text          0x00008b70       0x54 ../build/obj/wdog.o
                0x00008b70                DisableWDOG
                0x00008b9c                RefreshWDOG
                0x00008bb8                CongiWDOG
 .text          0x00008bc4       0x3c ../build/obj/interrupt.o
                0x00008bc4                Reserved54_IRQHandler
                0x00008bc4                DMA1_IRQHandler
                0x00008bc4                Reserved88_IRQHandler
                0x00008bc4                CAN0_ORed_IRQHandler
                0x00008bc4                FLEXIO_IRQHandler
                0x00008bc4                Reserved86_IRQHandler
                0x00008bc4                Reserved103_IRQHandler
                0x00008bc4                FTM1_Ch0_Ch1_IRQHandler
                0x00008bc4                FTM2_Ovf_Reload_IRQHandler
                0x00008bc4                Reserved50_IRQHandler
                0x00008bc4                FTFC_Fault_IRQHandler
                0x00008bc4                FTM0_Ch6_Ch7_IRQHandler
                0x00008bc4                DMA6_IRQHandler
                0x00008bc4                Reserved114_IRQHandler
                0x00008bc4                PORTC_IRQHandler
                0x00008bc4                Reserved89_IRQHandler
                0x00008bc4                ERM_double_fault_IRQHandler
                0x00008bc4                DMA2_IRQHandler
                0x00008bc4                Reserved59_IRQHandler
                0x00008bc4                LPIT0_Ch0_IRQHandler
                0x00008bc4                Reserved99_IRQHandler
                0x00008bc4                FTM3_Ch6_Ch7_IRQHandler
                0x00008bc4                CAN2_ORed_0_15_MB_IRQHandler
                0x00008bc4                LPIT0_Ch3_IRQHandler
                0x00008bc4                Reserved92_IRQHandler
                0x00008bc4                FTM0_Ch4_Ch5_IRQHandler
                0x00008bc4                CAN1_Error_IRQHandler
                0x00008bc4                FTM3_Ch0_Ch1_IRQHandler
                0x00008bc4                SWI_IRQHandler
                0x00008bc4                ADC0_IRQHandler
                0x00008bc4                FTM2_Ch4_Ch5_IRQHandler
                0x00008bc4                Reserved52_IRQHandler
                0x00008bc4                FTM0_Ovf_Reload_IRQHandler
                0x00008bc4                DefaultISR
                0x00008bc4                DMA9_IRQHandler
                0x00008bc4                Reserved58_IRQHandler
                0x00008bc4                CAN1_ORed_0_15_MB_IRQHandler
                0x00008bc4                FTM1_Ch2_Ch3_IRQHandler
                0x00008bc4                DMA14_IRQHandler
                0x00008bc4                Reserved82_IRQHandler
                0x00008bc4                CAN0_ORed_16_31_MB_IRQHandler
                0x00008bc4                LPI2C0_Slave_IRQHandler
                0x00008bc4                Reserved71_IRQHandler
                0x00008bc4                PORTD_IRQHandler
                0x00008bc4                Reserved69_IRQHandler
                0x00008bc4                PORTB_IRQHandler
                0x00008bc4                Reserved70_IRQHandler
                0x00008bc4                ADC1_IRQHandler
                0x00008bc4                FTM2_Ch2_Ch3_IRQHandler
                0x00008bc4                DefaultHandler
                0x00008bc4                Reserved53_IRQHandler
                0x00008bc4                DMA5_IRQHandler
                0x00008bc4                RTC_IRQHandler
                0x00008bc4                PDB0_IRQHandler
                0x00008bc4                FTM2_Ch6_Ch7_IRQHandler
                0x00008bc4                FTM3_Ch2_Ch3_IRQHandler
                0x00008bc4                FTM2_Ch0_Ch1_IRQHandler
                0x00008bc4                LPSPI1_IRQHandler
                0x00008bc4                LPUART1_RxTx_IRQHandler
                0x00008bc4                RTC_Seconds_IRQHandler
                0x00008bc4                CAN2_ORed_IRQHandler
                0x00008bc4                Reserved72_IRQHandler
                0x00008bc4                Reserved110_IRQHandler
                0x00008bc4                DMA11_IRQHandler
                0x00008bc4                Reserved107_IRQHandler
                0x00008bc4                Read_Collision_IRQHandler
                0x00008bc4                CAN2_Error_IRQHandler
                0x00008bc4                FTFC_IRQHandler
                0x00008bc4                DMA7_IRQHandler
                0x00008bc4                FTM1_Ch6_Ch7_IRQHandler
                0x00008bc4                Reserved105_IRQHandler
                0x00008bc4                LPIT0_Ch1_IRQHandler
                0x00008bc4                FTM1_Ch4_Ch5_IRQHandler
                0x00008bc4                FTM3_Ovf_Reload_IRQHandler
                0x00008bc4                LPUART2_RxTx_IRQHandler
                0x00008bc4                LPSPI0_IRQHandler
                0x00008bc4                WDOG_EWM_IRQHandler
                0x00008bc4                CMP0_IRQHandler
                0x00008bc4                Reserved90_IRQHandler
                0x00008bc4                Reserved83_IRQHandler
                0x00008bc4                FTM0_Fault_IRQHandler
                0x00008bc4                Reserved48_IRQHandler
                0x00008bc4                CAN0_Wake_Up_IRQHandler
                0x00008bc4                ERM_single_fault_IRQHandler
                0x00008bc4                FTM2_Fault_IRQHandler
                0x00008bc4                FTM0_Ch2_Ch3_IRQHandler
                0x00008bc4                DMA13_IRQHandler
                0x00008bc4                FTM0_Ch0_Ch1_IRQHandler
                0x00008bc4                FTM3_Fault_IRQHandler
                0x00008bc4                RCM_IRQHandler
                0x00008bc4                DMA3_IRQHandler
                0x00008bc4                Reserved100_IRQHandler
                0x00008bc4                DMA0_IRQHandler
                0x00008bc4                Reserved91_IRQHandler
                0x00008bc4                CAN1_ORed_IRQHandler
                0x00008bc4                DMA15_IRQHandler
                0x00008bc4                SCG_IRQHandler
                0x00008bc4                PDB1_IRQHandler
                0x00008bc4                Reserved81_IRQHandler
                0x00008bc4                Reserved46_IRQHandler
                0x00008bc4                Reserved45_IRQHandler
                0x00008bc4                CAN0_Error_IRQHandler
                0x00008bc4                Reserved112_IRQHandler
                0x00008bc4                LPI2C0_Master_IRQHandler
                0x00008bc4                DMA4_IRQHandler
                0x00008bc4                FTM1_Fault_IRQHandler
                0x00008bc4                Reserved106_IRQHandler
                0x00008bc4                DMA_Error_IRQHandler
                0x00008bc4                LVD_LVW_IRQHandler
                0x00008bc4                LPIT0_Ch2_IRQHandler
                0x00008bc4                PORTA_IRQHandler
                0x00008bc4                MCM_IRQHandler
                0x00008bc4                LPSPI2_IRQHandler
                0x00008bc4                DMA12_IRQHandler
                0x00008bc4                FTM3_Ch4_Ch5_IRQHandler
                0x00008bc4                CAN0_ORed_0_15_MB_IRQHandler
                0x00008bc4                LPUART0_RxTx_IRQHandler
                0x00008bc4                PORTE_IRQHandler
                0x00008bc4                LPTMR0_IRQHandler
                0x00008bc4                DMA10_IRQHandler
                0x00008bc4                Reserved87_IRQHandler
                0x00008bc4                FTM1_Ovf_Reload_IRQHandler
                0x00008bc4                DMA8_IRQHandler
                0x00008bc4                Reserved93_IRQHandler
                0x00008bc4                Reserved113_IRQHandler
                0x00008bca                NMI_Handler
                0x00008bd0                HardFault_Handler
                0x00008bd6                MemManage_Handler
                0x00008bdc                BusFault_Handler
                0x00008be2                UsageFault_Handler
                0x00008be8                SVC_Handler
                0x00008bee                DebugMon_Handler
                0x00008bf4                PendSV_Handler
                0x00008bfa                SysTick_Handler
 .text          0x00008c00       0x24 ../build/obj/clock.o
                0x00008c00                initClk
 *(.text*)
 *(.rodata)
 *(.rodata*)
 *(.glue_7)
 .glue_7        0x00008c24        0x0 linker stubs
 *(.glue_7t)
 .glue_7t       0x00008c24        0x0 linker stubs
 *(.eh_frame)
 *(.init)
 *(.fini)
                0x00008c24                . = ALIGN (0x4)
                0x00008c24                _etext = .

.vfp11_veneer   0x00008c24        0x0
 .vfp11_veneer  0x00008c24        0x0 linker stubs

.v4_bx          0x00008c24        0x0
 .v4_bx         0x00008c24        0x0 linker stubs

.iplt           0x00008c24        0x0
 .iplt          0x00008c24        0x0 ../build/obj/startup.o

.rel.dyn        0x00008c24        0x0
 .rel.iplt      0x00008c24        0x0 ../build/obj/startup.o

.data           0x1fff8000        0x0 load address 0x00008c24
                0x1fff8000                _sdata_ram = .
 *(.data)
 .data          0x1fff8000        0x0 ../build/obj/startup.o
 .data          0x1fff8000        0x0 ../build/obj/main.o
 .data          0x1fff8000        0x0 ../build/obj/port.o
 .data          0x1fff8000        0x0 ../build/obj/flash.o
 .data          0x1fff8000        0x0 ../build/obj/gpio.o
 .data          0x1fff8000        0x0 ../build/obj/wdog.o
 .data          0x1fff8000        0x0 ../build/obj/interrupt.o
 .data          0x1fff8000        0x0 ../build/obj/clock.o
                0x1fff8000                . = ALIGN (0x4)
                0x1fff8000                _edata_ram = .

.flashConfig    0x1fff8000       0x10 load address 0x00008c24
 .flashConfig   0x1fff8000       0x10 ../build/obj/startup.o
                0x1fff8000                flashConfig

.igot.plt       0x1fff8010        0x0 load address 0x00008c34
 .igot.plt      0x1fff8010        0x0 ../build/obj/startup.o

.bss            0x1fff8010        0x8 load address 0x00008c34
                0x1fff8010                _bss_start_ = .
 *(.bss)
 .bss           0x1fff8010        0x0 ../build/obj/startup.o
 .bss           0x1fff8010        0x8 ../build/obj/main.o
                0x1fff8010                dlyCnt
                0x1fff8014                counter
 .bss           0x1fff8018        0x0 ../build/obj/port.o
 .bss           0x1fff8018        0x0 ../build/obj/flash.o
 .bss           0x1fff8018        0x0 ../build/obj/gpio.o
 .bss           0x1fff8018        0x0 ../build/obj/wdog.o
 .bss           0x1fff8018        0x0 ../build/obj/interrupt.o
 .bss           0x1fff8018        0x0 ../build/obj/clock.o
 *(.bss*)
 *(.common)
 *(.common*)
                0x1fff8018                . = ALIGN (0x4)
                0x1fff8018                _bss_end_ = .
OUTPUT(../build/bin/S32_App.elf elf32-littlearm)
LOAD linker stubs

.debug_info     0x00000000     0x117c
 .debug_info    0x00000000       0xe0 ../build/obj/startup.o
 .debug_info    0x000000e0      0x4e7 ../build/obj/main.o
 .debug_info    0x000005c7      0x28b ../build/obj/port.o
 .debug_info    0x00000852      0x2e8 ../build/obj/flash.o
 .debug_info    0x00000b3a      0x2f7 ../build/obj/gpio.o
 .debug_info    0x00000e31      0x112 ../build/obj/wdog.o
 .debug_info    0x00000f43      0x15e ../build/obj/interrupt.o
 .debug_info    0x000010a1       0xdb ../build/obj/clock.o

.debug_abbrev   0x00000000      0x63f
 .debug_abbrev  0x00000000       0x91 ../build/obj/startup.o
 .debug_abbrev  0x00000091      0x14c ../build/obj/main.o
 .debug_abbrev  0x000001dd       0xff ../build/obj/port.o
 .debug_abbrev  0x000002dc       0xbb ../build/obj/flash.o
 .debug_abbrev  0x00000397       0xf6 ../build/obj/gpio.o
 .debug_abbrev  0x0000048d       0x9b ../build/obj/wdog.o
 .debug_abbrev  0x00000528       0x7b ../build/obj/interrupt.o
 .debug_abbrev  0x000005a3       0x9c ../build/obj/clock.o

.debug_aranges  0x00000000      0x100
 .debug_aranges
                0x00000000       0x20 ../build/obj/startup.o
 .debug_aranges
                0x00000020       0x20 ../build/obj/main.o
 .debug_aranges
                0x00000040       0x20 ../build/obj/port.o
 .debug_aranges
                0x00000060       0x20 ../build/obj/flash.o
 .debug_aranges
                0x00000080       0x20 ../build/obj/gpio.o
 .debug_aranges
                0x000000a0       0x20 ../build/obj/wdog.o
 .debug_aranges
                0x000000c0       0x20 ../build/obj/interrupt.o
 .debug_aranges
                0x000000e0       0x20 ../build/obj/clock.o

.debug_macro    0x00000000     0xf24f
 .debug_macro   0x00000000       0x7e ../build/obj/startup.o
 .debug_macro   0x0000007e      0xa5a ../build/obj/startup.o
 .debug_macro   0x00000ad8       0x19 ../build/obj/startup.o
 .debug_macro   0x00000af1       0x22 ../build/obj/startup.o
 .debug_macro   0x00000b13       0x8e ../build/obj/startup.o
 .debug_macro   0x00000ba1       0x51 ../build/obj/startup.o
 .debug_macro   0x00000bf2      0x103 ../build/obj/startup.o
 .debug_macro   0x00000cf5       0x6a ../build/obj/startup.o
 .debug_macro   0x00000d5f      0x1df ../build/obj/startup.o
 .debug_macro   0x00000f3e     0xdf8d ../build/obj/startup.o
 .debug_macro   0x0000eecb       0xa0 ../build/obj/main.o
 .debug_macro   0x0000ef6b       0x84 ../build/obj/port.o
 .debug_macro   0x0000efef       0x7c ../build/obj/flash.o
 .debug_macro   0x0000f06b       0x76 ../build/obj/gpio.o
 .debug_macro   0x0000f0e1       0x7c ../build/obj/wdog.o
 .debug_macro   0x0000f15d       0x76 ../build/obj/interrupt.o
 .debug_macro   0x0000f1d3       0x7c ../build/obj/clock.o

.debug_line     0x00000000     0x10d1
 .debug_line    0x00000000      0x1fb ../build/obj/startup.o
 .debug_line    0x000001fb      0x21e ../build/obj/main.o
 .debug_line    0x00000419      0x1d7 ../build/obj/port.o
 .debug_line    0x000005f0      0x2ec ../build/obj/flash.o
 .debug_line    0x000008dc      0x206 ../build/obj/gpio.o
 .debug_line    0x00000ae2      0x1eb ../build/obj/wdog.o
 .debug_line    0x00000ccd      0x22d ../build/obj/interrupt.o
 .debug_line    0x00000efa      0x1d7 ../build/obj/clock.o

.debug_str      0x00000000    0x5db95
 .debug_str     0x00000000    0x5d67e ../build/obj/startup.o
                              0x5d7e2 (size before relaxing)
 .debug_str     0x0005d67e      0x203 ../build/obj/main.o
                              0x5d9ad (size before relaxing)
 .debug_str     0x0005d881       0x2c ../build/obj/port.o
                              0x5d8de (size before relaxing)
 .debug_str     0x0005d8ad      0x163 ../build/obj/flash.o
                              0x5d924 (size before relaxing)
 .debug_str     0x0005da10       0x56 ../build/obj/gpio.o
                              0x5d8e9 (size before relaxing)
 .debug_str     0x0005da66       0x44 ../build/obj/wdog.o
                              0x5d7ee (size before relaxing)
 .debug_str     0x0005daaa       0xc2 ../build/obj/interrupt.o
                              0x5d864 (size before relaxing)
 .debug_str     0x0005db6c       0x29 ../build/obj/clock.o
                              0x5d7d6 (size before relaxing)

.comment        0x00000000       0x49
 .comment       0x00000000       0x49 ../build/obj/startup.o
                                 0x4a (size before relaxing)
 .comment       0x00000049       0x4a ../build/obj/main.o
 .comment       0x00000049       0x4a ../build/obj/port.o
 .comment       0x00000049       0x4a ../build/obj/flash.o
 .comment       0x00000049       0x4a ../build/obj/gpio.o
 .comment       0x00000049       0x4a ../build/obj/wdog.o
 .comment       0x00000049       0x4a ../build/obj/interrupt.o
 .comment       0x00000049       0x4a ../build/obj/clock.o

.ARM.attributes
                0x00000000       0x2e
 .ARM.attributes
                0x00000000       0x2e ../build/obj/startup.o
 .ARM.attributes
                0x0000002e       0x2e ../build/obj/main.o
 .ARM.attributes
                0x0000005c       0x2e ../build/obj/port.o
 .ARM.attributes
                0x0000008a       0x2e ../build/obj/flash.o
 .ARM.attributes
                0x000000b8       0x2e ../build/obj/gpio.o
 .ARM.attributes
                0x000000e6       0x2e ../build/obj/wdog.o
 .ARM.attributes
                0x00000114       0x2e ../build/obj/interrupt.o
 .ARM.attributes
                0x00000142       0x2e ../build/obj/clock.o

.debug_frame    0x00000000      0x57c
 .debug_frame   0x00000000       0x6c ../build/obj/startup.o
 .debug_frame   0x0000006c       0x54 ../build/obj/main.o
 .debug_frame   0x000000c0       0x38 ../build/obj/port.o
 .debug_frame   0x000000f8      0x20c ../build/obj/flash.o
 .debug_frame   0x00000304       0xd8 ../build/obj/gpio.o
 .debug_frame   0x000003dc       0x70 ../build/obj/wdog.o
 .debug_frame   0x0000044c      0x100 ../build/obj/interrupt.o
 .debug_frame   0x0000054c       0x30 ../build/obj/clock.o
